; Function Attrs: nounwind uwtable
define dso_local range(i32 0, 2) i32 @ossl_cmp_mock_srv_set_pollCount(ptr noundef %0, i32 noundef %1) local_unnamed_addr #0 {
  %3 = tail call ptr @OSSL_CMP_SRV_CTX_get0_custom_ctx(ptr noundef %0) #4
  %4 = icmp eq ptr %3, null
  br i1 %4, label %5, label %6

5:                                                ; preds = %2
  tail call void @ERR_new() #4
  tail call void @ERR_set_debug(ptr noundef nonnull @.str, i32 noundef 195, ptr noundef nonnull @__func__.ossl_cmp_mock_srv_set_pollCount) #4
  tail call void (i32, i32, ptr, ...) @ERR_set_error(i32 noundef 58, i32 noundef 103, ptr noundef null) #4
  br label %11

6:                                                ; preds = %2
  %7 = icmp slt i32 %1, 0
  br i1 %7, label %8, label %9

8:                                                ; preds = %6
  tail call void @ERR_new() #4
  tail call void @ERR_set_debug(ptr noundef nonnull @.str, i32 noundef 199, ptr noundef nonnull @__func__.ossl_cmp_mock_srv_set_pollCount) #4
  tail call void (i32, i32, ptr, ...) @ERR_set_error(i32 noundef 58, i32 noundef 100, ptr noundef null) #4
  br label %11

9:                                                ; preds = %6
  %10 = getelementptr inbounds nuw i8, ptr %3, i64 96
  store i32 %1, ptr %10, align 8, !tbaa !26
  br label %11

11:                                               ; preds = %9, %8, %5
  %.0 = phi i32 [ 0, %5 ], [ 0, %8 ], [ 1, %9 ]
  ret i32 %.0
}